target datalayout = "e-m:e-p270:32:32-p271:32:32-p272:64:64-i64:64-i128:128-f80:128-n8:16:32:64-S128"
target triple = "x86_64-unknown-linux-gnu"

%"class.cineon::Reader" = type { ptr, %"struct.cineon::Header", ptr, ptr, ptr }
%"struct.cineon::Header" = type { %"struct.cineon::GenericHeader", %"struct.cineon::IndustryHeader" }
%"struct.cineon::GenericHeader" = type { i32, i32, i32, i32, i32, i32, [8 x i8], [100 x i8], [12 x i8], [12 x i8], [36 x i8], i8, i8, [2 x i8], [8 x %"struct.cineon::ImageElement"], [2 x float], [2 x float], [2 x float], [2 x float], [200 x i8], [28 x i8], i8, i8, i8, i8, i32, i32, [20 x i8], i32, i32, [100 x i8], [12 x i8], [12 x i8], [64 x i8], [32 x i8], [32 x i8], float, float, float, [40 x i8] }
%"struct.cineon::ImageElement" = type { [2 x i8], i8, i8, i32, i32, float, float, float, float }
%"struct.cineon::IndustryHeader" = type { i8, i8, i8, i8, i32, i32, [32 x i8], i32, float, [32 x i8], [200 x i8], [740 x i8] }
%"struct.cineon::Block" = type { i32, i32, i32, i32 }

; Function Attrs: mustprogress nounwind uwtable
define linkonce_odr hidden void @_ZN6cineon5Block5CheckEv(ptr noundef nonnull align 4 dereferenceable(16) %this) #1 comdat align 2 {
entry:
  %this.addr = alloca ptr, align 8
  %t = alloca i32, align 4
  %t8 = alloca i32, align 4
  store ptr %this, ptr %this.addr, align 8
  %this1 = load ptr, ptr %this.addr, align 8
  %x1 = getelementptr inbounds %"struct.cineon::Block", ptr %this1, i32 0, i32 0
  %0 = load i32, ptr %x1, align 4
  %x2 = getelementptr inbounds %"struct.cineon::Block", ptr %this1, i32 0, i32 2
  %1 = load i32, ptr %x2, align 4
  %cmp = icmp sgt i32 %0, %1
  br i1 %cmp, label %if.then, label %if.end

if.then:                                          ; preds = %entry
  %x12 = getelementptr inbounds %"struct.cineon::Block", ptr %this1, i32 0, i32 0
  %2 = load i32, ptr %x12, align 4
  store i32 %2, ptr %t, align 4
  %x23 = getelementptr inbounds %"struct.cineon::Block", ptr %this1, i32 0, i32 2
  %3 = load i32, ptr %x23, align 4
  %x14 = getelementptr inbounds %"struct.cineon::Block", ptr %this1, i32 0, i32 0
  store i32 %3, ptr %x14, align 4
  %4 = load i32, ptr %t, align 4
  %x25 = getelementptr inbounds %"struct.cineon::Block", ptr %this1, i32 0, i32 2
  store i32 %4, ptr %x25, align 4
  br label %if.end

if.end:                                           ; preds = %if.then, %entry
  %y1 = getelementptr inbounds %"struct.cineon::Block", ptr %this1, i32 0, i32 1
  %5 = load i32, ptr %y1, align 4
  %y2 = getelementptr inbounds %"struct.cineon::Block", ptr %this1, i32 0, i32 3
  %6 = load i32, ptr %y2, align 4
  %cmp6 = icmp sgt i32 %5, %6
  br i1 %cmp6, label %if.then7, label %if.end13

if.then7:                                         ; preds = %if.end
  %y19 = getelementptr inbounds %"struct.cineon::Block", ptr %this1, i32 0, i32 1
  %7 = load i32, ptr %y19, align 4
  store i32 %7, ptr %t8, align 4
  %y210 = getelementptr inbounds %"struct.cineon::Block", ptr %this1, i32 0, i32 3
  %8 = load i32, ptr %y210, align 4
  %y111 = getelementptr inbounds %"struct.cineon::Block", ptr %this1, i32 0, i32 1
  store i32 %8, ptr %y111, align 4
  %9 = load i32, ptr %t8, align 4
  %y212 = getelementptr inbounds %"struct.cineon::Block", ptr %this1, i32 0, i32 3
  store i32 %9, ptr %y212, align 4
  br label %if.end13

if.end13:                                         ; preds = %if.then7, %if.end
  ret void
}

; Function Attrs: mustprogress uwtable
define linkonce_odr hidden void @_ZN6cineon5BlockC2Eiiii(ptr noundef nonnull align 4 dereferenceable(16) %this, i32 noundef %x1, i32 noundef %y1, i32 noundef %x2, i32 noundef %y2) unnamed_addr #6 comdat align 2 {
entry:
  %this.addr = alloca ptr, align 8
  %x1.addr = alloca i32, align 4
  %y1.addr = alloca i32, align 4
  %x2.addr = alloca i32, align 4
  %y2.addr = alloca i32, align 4
  store ptr %this, ptr %this.addr, align 8
  store i32 %x1, ptr %x1.addr, align 4
  store i32 %y1, ptr %y1.addr, align 4
  store i32 %x2, ptr %x2.addr, align 4
  store i32 %y2, ptr %y2.addr, align 4
  %this1 = load ptr, ptr %this.addr, align 8
  %x12 = getelementptr inbounds %"struct.cineon::Block", ptr %this1, i32 0, i32 0
  %0 = load i32, ptr %x1.addr, align 4
  store i32 %0, ptr %x12, align 4
  %y13 = getelementptr inbounds %"struct.cineon::Block", ptr %this1, i32 0, i32 1
  %1 = load i32, ptr %y1.addr, align 4
  store i32 %1, ptr %y13, align 4
  %x24 = getelementptr inbounds %"struct.cineon::Block", ptr %this1, i32 0, i32 2
  %2 = load i32, ptr %x2.addr, align 4
  store i32 %2, ptr %x24, align 4
  %y25 = getelementptr inbounds %"struct.cineon::Block", ptr %this1, i32 0, i32 3
  %3 = load i32, ptr %y2.addr, align 4
  store i32 %3, ptr %y25, align 4
  call void @_ZN6cineon5Block5CheckEv(ptr noundef nonnull align 4 dereferenceable(16) %this1)
  ret void
}

; Function Attrs: mustprogress uwtable
define hidden noundef zeroext i1 @_ZN6cineon6Reader9ReadImageEPvNS_8DataSizeE(ptr noundef nonnull align 8 dereferenceable(2080) %this, ptr noundef %data, i32 noundef %size) #6 align 2 {
entry:
  %this.addr = alloca ptr, align 8
  %data.addr = alloca ptr, align 8
  %size.addr = alloca i32, align 4
  %block = alloca %"struct.cineon::Block", align 4
  store ptr %this, ptr %this.addr, align 8
  store ptr %data, ptr %data.addr, align 8
  store i32 %size, ptr %size.addr, align 4
  %this1 = load ptr, ptr %this.addr, align 8
  %header = getelementptr inbounds %"class.cineon::Reader", ptr %this1, i32 0, i32 1
  %call = call noundef i32 @_ZNK6cineon6Header5WidthEv(ptr noundef nonnull align 4 dereferenceable(2048) %header)
  %sub = sub i32 %call, 1
  %header2 = getelementptr inbounds %"class.cineon::Reader", ptr %this1, i32 0, i32 1
  %call3 = call noundef i32 @_ZNK6cineon6Header6HeightEv(ptr noundef nonnull align 4 dereferenceable(2048) %header2)
  %sub4 = sub i32 %call3, 1
  call void @_ZN6cineon5BlockC2Eiiii(ptr noundef nonnull align 4 dereferenceable(16) %block, i32 noundef 0, i32 noundef 0, i32 noundef %sub, i32 noundef %sub4)
  %0 = load ptr, ptr %data.addr, align 8
  %1 = load i32, ptr %size.addr, align 4
  %call5 = call noundef zeroext i1 @_ZN6cineon6Reader9ReadBlockEPvNS_8DataSizeERNS_5BlockE(ptr noundef nonnull align 8 dereferenceable(2080) %this1, ptr noundef %0, i32 noundef %1, ptr noundef nonnull align 4 dereferenceable(16) %block)
  ret i1 %call5
}