; Function Attrs: mustprogress uwtable
define hidden noundef zeroext i1 @_ZN6cineon6Reader9ReadImageEPvNS_8DataSizeE(ptr noundef nonnull align 8 dereferenceable(2080) %this, ptr noundef %data, i32 noundef %size) local_unnamed_addr #4 align 2 {
entry:
  %block = alloca %"struct.cineon::Block", align 4
  %header = getelementptr inbounds i8, ptr %this, i64 8
  %call = tail call noundef i32 @_ZNK6cineon6Header5WidthEv(ptr noundef nonnull align 4 dereferenceable(2048) %header)
  %sub = add i32 %call, -1
  %call3 = tail call noundef i32 @_ZNK6cineon6Header6HeightEv(ptr noundef nonnull align 4 dereferenceable(2048) %header)
  %sub4 = add i32 %call3, -1
  store i32 0, ptr %block, align 4
  %y13.i = getelementptr inbounds i8, ptr %block, i64 4
  store i32 0, ptr %y13.i, align 4
  %x24.i = getelementptr inbounds i8, ptr %block, i64 8
  store i32 %sub, ptr %x24.i, align 4
  %y25.i = getelementptr inbounds i8, ptr %block, i64 12
  store i32 %sub4, ptr %y25.i, align 4
  %cmp.i.i = icmp slt i32 %sub, 0
  br i1 %cmp.i.i, label %if.then.i.i, label %if.end.i.i

if.then.i.i:                                      ; preds = %entry
  store i32 %sub, ptr %block, align 4
  store i32 0, ptr %x24.i, align 4
  br label %if.end.i.i

if.end.i.i:                                       ; preds = %if.then.i.i, %entry
  %cmp6.i.i = icmp slt i32 %sub4, 0
  br i1 %cmp6.i.i, label %if.then7.i.i, label %_ZN6cineon5BlockC2Eiiii.exit

if.then7.i.i:                                     ; preds = %if.end.i.i
  store i32 %sub4, ptr %y13.i, align 4
  store i32 0, ptr %y25.i, align 4
  br label %_ZN6cineon5BlockC2Eiiii.exit

_ZN6cineon5BlockC2Eiiii.exit:                     ; preds = %if.end.i.i, %if.then7.i.i
  %call5 = call noundef zeroext i1 @_ZN6cineon6Reader9ReadBlockEPvNS_8DataSizeERNS_5BlockE(ptr noundef nonnull align 8 dereferenceable(2080) %this, ptr noundef %data, i32 noundef %size, ptr noundef nonnull align 4 dereferenceable(16) %block)
  ret i1 %call5
}